; Function Attrs: mustprogress uwtable
define hidden noundef zeroext i1 @_ZN4lean17is_numerical_nameENS_4nameE(ptr noundef captures(none) %0) local_unnamed_addr #0 {
  %.pre = load ptr, ptr %0, align 8, !tbaa !18
  br label %2

2:                                                ; preds = %_ZN4lean4nameaSERKS0_.exit, %1
  %3 = phi ptr [ %43, %_ZN4lean4nameaSERKS0_.exit ], [ %.pre, %1 ]
  %4 = ptrtoint ptr %3 to i64
  %5 = and i64 %4, 1
  %.not.i.i.i.i.i.i = icmp eq i64 %5, 0
  br i1 %.not.i.i.i.i.i.i, label %9, label %6

6:                                                ; preds = %2
  %7 = lshr i64 %4, 1
  %8 = trunc i64 %7 to i32
  br label %_ZNK4lean4name12is_anonymousEv.exit.i

9:                                                ; preds = %2
  %10 = getelementptr i8, ptr %3, i64 4
  %.val.i.i.i.i.i.i = load i32, ptr %10, align 4
  %11 = lshr i32 %.val.i.i.i.i.i.i, 24
  br label %_ZNK4lean4name12is_anonymousEv.exit.i

_ZNK4lean4name12is_anonymousEv.exit.i:            ; preds = %9, %6
  %.0.i.i.i.i.i.i = phi i32 [ %8, %6 ], [ %11, %9 ]
  %12 = icmp eq i32 %.0.i.i.i.i.i.i, 0
  br i1 %12, label %_ZNK4lean4name9is_atomicEv.exit.thread, label %13

13:                                               ; preds = %_ZNK4lean4name12is_anonymousEv.exit.i
  %14 = getelementptr inbounds nuw i8, ptr %3, i64 8
  %15 = load ptr, ptr %14, align 8, !tbaa !26
  %16 = ptrtoint ptr %15 to i64
  %17 = and i64 %16, 1
  %.not.i.i.i.i = icmp eq i64 %17, 0
  br i1 %.not.i.i.i.i, label %21, label %18

18:                                               ; preds = %13
  %19 = lshr i64 %16, 1
  %20 = trunc i64 %19 to i32
  br label %_ZNK4lean4name9is_atomicEv.exit

21:                                               ; preds = %13
  %22 = getelementptr i8, ptr %15, i64 4
  %.val.i.i.i.i = load i32, ptr %22, align 4
  %23 = lshr i32 %.val.i.i.i.i, 24
  br label %_ZNK4lean4name9is_atomicEv.exit

_ZNK4lean4name9is_atomicEv.exit:                  ; preds = %18, %21
  %.0.i.i.i.i = phi i32 [ %20, %18 ], [ %23, %21 ]
  %24 = icmp eq i32 %.0.i.i.i.i, 0
  br i1 %24, label %_ZNK4lean4name9is_atomicEv.exit.thread, label %25

25:                                               ; preds = %_ZNK4lean4name9is_atomicEv.exit
  br i1 %.not.i.i.i.i.i.i, label %29, label %26

26:                                               ; preds = %25
  %27 = lshr i64 %4, 1
  %28 = trunc i64 %27 to i32
  br label %_ZNK4lean4name10get_prefixEv.exit

29:                                               ; preds = %25
  %30 = getelementptr i8, ptr %3, i64 4
  %.val.i.i.i.i.i.i4 = load i32, ptr %30, align 4
  %31 = lshr i32 %.val.i.i.i.i.i.i4, 24
  br label %_ZNK4lean4name10get_prefixEv.exit

_ZNK4lean4name10get_prefixEv.exit:                ; preds = %26, %29
  %.0.i.i.i.i.i.i3 = phi i32 [ %28, %26 ], [ %31, %29 ]
  %32 = icmp eq i32 %.0.i.i.i.i.i.i3, 0
  %spec.select.i = select i1 %32, ptr %0, ptr %14
  %33 = load ptr, ptr %spec.select.i, align 8, !tbaa !18
  %34 = ptrtoint ptr %33 to i64
  %35 = and i64 %34, 1
  %.not.i.i.i = icmp eq i64 %35, 0
  br i1 %.not.i.i.i, label %36, label %_ZN4lean3incEP11lean_object.exit.i.i

36:                                               ; preds = %_ZNK4lean4name10get_prefixEv.exit
  %.val.i.i.i.i5 = load i32, ptr %33, align 4, !tbaa !20
  %37 = icmp sgt i32 %.val.i.i.i.i5, 0
  br i1 %37, label %38, label %40, !prof !23

38:                                               ; preds = %36
  %39 = add nuw nsw i32 %.val.i.i.i.i5, 1
  store i32 %39, ptr %33, align 4, !tbaa !20
  br label %_ZN4lean3incEP11lean_object.exit.i.i

40:                                               ; preds = %36
  %.not.i.i.i.i6 = icmp eq i32 %.val.i.i.i.i5, 0
  br i1 %.not.i.i.i.i6, label %_ZN4lean3incEP11lean_object.exit.i.i, label %41

41:                                               ; preds = %40
  tail call void @lean_inc_ref_cold(ptr noundef nonnull %33)
  %.pre.i.i = load ptr, ptr %spec.select.i, align 8, !tbaa !18
  %.pre9 = load ptr, ptr %0, align 8, !tbaa !18
  %.pre10 = ptrtoint ptr %.pre9 to i64
  br label %_ZN4lean3incEP11lean_object.exit.i.i

_ZN4lean3incEP11lean_object.exit.i.i:             ; preds = %41, %40, %38, %_ZNK4lean4name10get_prefixEv.exit
  %.pre-phi = phi i64 [ %.pre10, %41 ], [ %4, %40 ], [ %4, %38 ], [ %4, %_ZNK4lean4name10get_prefixEv.exit ]
  %42 = phi ptr [ %.pre9, %41 ], [ %3, %40 ], [ %3, %38 ], [ %3, %_ZNK4lean4name10get_prefixEv.exit ]
  %43 = phi ptr [ %.pre.i.i, %41 ], [ %33, %40 ], [ %33, %38 ], [ %33, %_ZNK4lean4name10get_prefixEv.exit ]
  %44 = and i64 %.pre-phi, 1
  %.not.i4.i.i = icmp eq i64 %44, 0
  br i1 %.not.i4.i.i, label %45, label %_ZN4lean4nameaSERKS0_.exit

45:                                               ; preds = %_ZN4lean3incEP11lean_object.exit.i.i
  %46 = load i32, ptr %42, align 4, !tbaa !20
  %47 = icmp sgt i32 %46, 1
  br i1 %47, label %48, label %50, !prof !23

48:                                               ; preds = %45
  %49 = add nsw i32 %46, -1
  store i32 %49, ptr %42, align 4, !tbaa !20
  br label %_ZN4lean4nameaSERKS0_.exit

50:                                               ; preds = %45
  %.not.i.i5.i.i = icmp eq i32 %46, 0
  br i1 %.not.i.i5.i.i, label %_ZN4lean4nameaSERKS0_.exit, label %51

51:                                               ; preds = %50
  tail call void @lean_dec_ref_cold(ptr noundef nonnull %42)
  br label %_ZN4lean4nameaSERKS0_.exit

_ZN4lean4nameaSERKS0_.exit:                       ; preds = %_ZN4lean3incEP11lean_object.exit.i.i, %48, %50, %51
  store ptr %43, ptr %0, align 8, !tbaa !18
  br label %2, !llvm.loop !27

_ZNK4lean4name9is_atomicEv.exit.thread:           ; preds = %_ZNK4lean4name12is_anonymousEv.exit.i, %_ZNK4lean4name9is_atomicEv.exit
  br i1 %.not.i.i.i.i.i.i, label %55, label %52

52:                                               ; preds = %_ZNK4lean4name9is_atomicEv.exit.thread
  %53 = lshr i64 %4, 1
  %54 = trunc i64 %53 to i32
  br label %_ZNK4lean4name10is_numeralEv.exit

55:                                               ; preds = %_ZNK4lean4name9is_atomicEv.exit.thread
  %56 = getelementptr i8, ptr %3, i64 4
  %.val.i.i.i.i.i = load i32, ptr %56, align 4
  %57 = lshr i32 %.val.i.i.i.i.i, 24
  br label %_ZNK4lean4name10is_numeralEv.exit

_ZNK4lean4name10is_numeralEv.exit:                ; preds = %52, %55
  %.0.i.i.i.i.i = phi i32 [ %54, %52 ], [ %57, %55 ]
  %58 = icmp eq i32 %.0.i.i.i.i.i, 2
  ret i1 %58
}